target datalayout = "e-m:e-p270:32:32-p271:32:32-p272:64:64-i64:64-i128:128-f80:128-n8:16:32:64-S128"
target triple = "x86_64-pc-linux-gnu"

%struct._zval_struct = type { %union._zend_value, %union.anon, %union.anon.2 }
%union._zend_value = type { i64 }
%union.anon = type { i32 }
%union.anon.2 = type { i32 }

; Function Attrs: nounwind uwtable
define dso_local ptr @php_bc_fgetcsv_empty_line() #0 {
  %1 = alloca ptr, align 8
  %2 = alloca %struct._zval_struct, align 8
  call void @llvm.lifetime.start.p0(i64 8, ptr %1) #14
  %3 = call ptr @_zend_new_array_0()
  store ptr %3, ptr %1, align 8, !tbaa !75
  call void @llvm.lifetime.start.p0(i64 16, ptr %2) #14
  br label %4

4:                                                ; preds = %0
  %5 = getelementptr inbounds nuw %struct._zval_struct, ptr %2, i32 0, i32 1
  store i32 1, ptr %5, align 8, !tbaa !17
  br label %6

6:                                                ; preds = %4
  br label %7

7:                                                ; preds = %6
  %8 = load ptr, ptr %1, align 8, !tbaa !75
  %9 = call ptr @zend_hash_next_index_insert(ptr noundef %8, ptr noundef %2)
  %10 = load ptr, ptr %1, align 8, !tbaa !75
  call void @llvm.lifetime.end.p0(i64 16, ptr %2) #14
  call void @llvm.lifetime.end.p0(i64 8, ptr %1) #14
  ret ptr %10
}