; Function Attrs: nounwind uwtable
define dso_local noundef ptr @php_bc_fgetcsv_empty_line() local_unnamed_addr #1 {
  %1 = alloca %struct._zval_struct, align 8
  %2 = tail call ptr @_zend_new_array_0() #18
  call void @llvm.lifetime.start.p0(i64 16, ptr nonnull %1) #18
  %3 = getelementptr inbounds nuw i8, ptr %1, i64 8
  store i32 1, ptr %3, align 8, !tbaa !21
  %4 = call ptr @zend_hash_next_index_insert(ptr noundef %2, ptr noundef nonnull %1) #18
  call void @llvm.lifetime.end.p0(i64 16, ptr nonnull %1) #18
  ret ptr %2
}